(dp1
S'output'
p2
S"<type 'exceptions.AttributeError'> 'NoneType' object has no attribute 'id'"
p3
sS'layer'
p4
S'/home/www-data/web2py/applications/emisv001/controllers/emisreport.py'
p5
sS'code'
p6
S'# coding: utf8\n# try something like\n#app_root/controllers/your_controller.py\nimport math\ndef dynamic_report_pisa():\n    form = plugin_appreport.REPORTFORM(table = db.student)\n\n    if form.accepts(request.vars, session):\n        return plugin_appreport.REPORTPISA(table = db.student, filter = dict(form.vars))\n\n    return dict(form = form)\n\ndef datasource():\n    query = db(db.student.id>0)\n    response.headers[\'Content-Type\'] = \'application/xml\'\n\n    return rows_to_xml(rows=query.select(), fields=db.student.fields, parent_tag=\'students\', child_tag=\'student\')\n\ndef dynamic_student_report():\n    #form = plugin_appreport.REPORTFORM(table = db.student)\n\n    #if form.accepts(request.vars, session):\n        #students = db(form.prep_filter(filter = dict(form.vars))).select()\n    students = db(db.student.id > 0).select()\n    logourl = URL(\'static\',\'images/afitlogo.gif\',host=True)\n\n    html = response.render(\'default/student_report.html\', dict(students = students, logo=logourl))\n    return plugin_appreport.REPORTPISA(html = html)\n\n   #return dict(html = html)\n\n# List of Students\n\ndef student_list():\n    students = db(db.student.id > 0).select()\n    logourl = URL(\'static\',\'images/afitlogo.gif\',host=True)\n    html = response.render(\'emisreport/student_list.html\', dict(students = students, logo=logourl))\n\n    return plugin_appreport.REPORTPISA(html = html)\n\ndef print_students():\n    return locals()\n\ndef form():\n    form = FORM(\n        TABLE(\n            INPUT(_type=\'submit\', _value=\'Print\')\n        ),\n        _action=\'pdf\',\n        _method=\'post\',\n        _target=\'_blank\'\n    )\n\n    return dict(form=form)\n\ndef pdf():\n    report = jasper_report(template_name=\'afit_report_studentlist\', data=str(datasource()),\n                           xpath_expression=\'students/student\', response=response, content_disposition=\'inline\')\n\n    return report\n\ndef resultreport():\n    #message= request.args[:5]\n    student_id = request.vars.id_no\n    smester = request.vars.sem\n    sessn = request.vars.sessn\n\n    student = db.student(student_id)\n    result = db((db.registered_course.student==student_id) & (db.registered_course.sessions==request.vars.sessn_id)).select()\n    semesters = db((db.registered_course.student==student_id) & (db.registered_course.sessions==request.vars.sessn_id)).select(db.registered_course.semester, distinct=True)\n    departid = db.program(student.program).department\n    progname = db.program(student.program).fullname\n    schoolid = db.department(departid).school\n\n    return dict(student=student, results=result, sessn = sessn, departid=departid, schoolid=schoolid, smester=smester, semesters=semesters, program=progname)\n\ndef transcriptor():\n     #message= request.args[:5]\n    student_id = request.vars.id_no\n    smester = request.vars.sem\n    sessn = request.vars.sessn\n\n    student = db.student(student_id)\n    query = db.archresult.student == student.id\n    result = db(query).select()\n    semesters = db(query).select(db.archresult.semester, db.archresult.sessions, distinct=True)\n    departid = db.program(student.program).department\n    progname = db.program(student.program).fullname\n    schoolid = db.department(departid).school\n\n    return dict(student=student, results=result, sessn = sessn, departid=departid, schoolid=schoolid, smester=smester, semesters=semesters, program=progname)\n@auth.requires_membership(\'hod\')\ndef getdeptsession():\n    depart = db.department(HOD=auth.user.id)\n\n    inputform = SQLFORM.factory(Field(\'department\', \'reference department\', requires=IS_IN_DB(db(db.department.id==depart.id), db.department.name)),\n                                Field(\'session\', \'reference school_session\', requires=IS_IN_DB(db, db.school_session.name, \'%(name)s\')),\n                                Field(\'levels\', requires=IS_IN_SET([\'NDI\', \'NDII\', \'HNDI\', \'HNDII\', \'PGD\'])),\n                                )\n    if inputform.process().accepted:\n        #departid = db.department(name=inputform.vars.department).id or redirect(URL(c=\'default\', f=\'reportnone\'))\n        departid = depart.id\n        sessionid = db.school_session(name=inputform.vars.session).id or redirect(URL(c=\'default\', f=\'reportnone\'))\n        levels = inputform.vars.levels\n\n        redirect(URL(\'resultlistperdept\', vars={\'departid\':departid, \'sessionid\':sessionid, \'levels\':levels, \'rpt\':\'RESULT LISTS\' }))\n        #response.flash ="Good"\n    else:\n        response.flash = "error"\n    return dict(form=inputform)\n@auth.requires_membership(\'hod\')\ndef resultlistperdept():\n    #Get all programs in the department referenced by vars.departid\n    programs=db(db.program.department == request.vars.departid).select()\n    #Get all students belonging to all programs in the department\n    studentlistA = db(db.student.program.belongs(programs)).select()\n    #Get all students who enrolled from the students referenced by studentlistA\n    enrollist = db(db.sessions_enrol.student.belongs(studentlistA))._select(db.sessions_enrol.student)\n    #studentlist =\n\n    myquery=db.registered_course.student.belongs(enrollist) #._select(db.registered_course.student)\n    resultlist = db(myquery).select()\n\n    form=SQLFORM.grid(myquery, orderby=db.registered_course.student|db.registered_course.semester)\n    return dict(form=form) #programs=programs, studentlist=studentlist, results=resultlist)\n\n\n@auth.requires_membership(\'hod\')\ndef print_resultlist():\n\n    programs=db(db.program.department == request.vars.departid).select()\n    studentlistA = db(db.student.program.belongs(programs)).select()\n    studentlistB = db(db.sessions_enrol.student.belongs(studentlistA))._select(db.sessions_enrol.student)\n    studentlist = db(db.student.id.belongs(studentlistB)).select()\n    myquery=db.registered_course.student.belongs(studentlist)\n    resultlist = db(myquery).select()\n    semesters = db(myquery).select(db.registered_course.semester, distinct=True)\n\n    courses = db(myquery).select(db.registered_course.course_subject,db.registered_course.semester, distinct=True)\n\n    return dict(students=studentlist, semesters=semesters, courses = courses, results=resultlist, departid=request.vars.departid, sessionid=request.vars.sessionid)\n\n\n\n#Utility\n#without scores\n@auth.requires_membership(\'hod\')\ndef print_resultlistwts():\n    request.vars.rpt = \'RESULT LIST - NOTICE BOARD\'\n    programs=db(db.program.department == request.vars.departid).select()\n    studentlistA = db(db.student.program.belongs(programs)).select()\n    studentlistB = db(db.sessions_enrol.student.belongs(studentlistA))._select(db.sessions_enrol.student)\n    studentlist = db(db.student.id.belongs(studentlistB)).select()\n    myquery=db.registered_course.student.belongs(studentlist)\n    resultlist = db(myquery).select()\n    semesters = db(myquery).select(db.registered_course.semester, distinct=True)\n\n    courses = db(db.registered_course.student.belongs(studentlist)).select(db.registered_course.course_subject,db.registered_course.semester, distinct=True)\n\n    #resultincuclm = db(db.registered_course.course_subject.belongs(curricourse, resultlist)).select()\n\n\n\n    return dict(students=studentlist, semesters=semesters, courses = courses, results=resultlist, departid=request.vars.departid, sessionid=request.vars.sessionid)\n\n@auth.requires_membership(\'hod\')\ndef scoresheet():\n    request.vars.rpt = \'MASTER SCORE SHEET\'\n    programs=db(db.program.department == request.vars.departid).select()\n    studentqry = (db.student.school_level == request.vars.levels) & (db.student.program.belongs(programs))\n    studentlist = db(studentqry).select()\n    myquery=db.registered_course.student.belongs(studentlist)\n    resultlist = db(myquery).select()\n    distinctcourses = db(myquery).select(db.registered_course.course_subject, distinct=True)\n    semesters = db(myquery).select(db.registered_course.semester, distinct=True)\n\n    courses = db(db.registered_course.student.belongs(studentlist)).select(db.registered_course.course_subject,db.registered_course.semester, distinct=True)\n\n    return dict(students=studentlist, semesters=semesters, courses = courses, results=resultlist, departid=request.vars.departid, sessionid=request.vars.sessionid)\n\n@auth.requires_membership(\'hod\')\ndef course_scoresheet():\n    request.vars.rpt = \'COURSE SCORE SHEET\'\n    programs=db(db.program.department == request.vars.departid).select()\n    studentqry = (db.student.school_level == request.vars.levels) & (db.student.program.belongs(programs))\n    studentlist = db(studentqry).select()\n    myquery=db.registered_course.student.belongs(studentlist)\n    resultlist = db(myquery).select()\n    distinctcourses = db(myquery).select(db.registered_course.course_subject, distinct=True)\n    semesters = db(myquery).select(db.registered_course.semester, db.registered_course.sessions, distinct=True)\n\n    courses = db(db.registered_course.student.belongs(studentlist)).select(db.registered_course.course_subject,db.registered_course.semester, distinct=True)\n\n    return dict(students=studentlist, semesters=semesters, courses = courses, results=resultlist, departid=request.vars.departid, sessionid=request.vars.sessionid)\n\n\ndef biodataform():\n    departid = 4 #request.vars.departid\n    request.vars.rpt = \'STUDENT BIODATA LISTS\'\n    sessionid=5 #request.vars.sessionid\n    #students=db(db.student.program==db.program(department=departid).id).select(orderby=db.student.matric_no)\n    students=db(db.student.id > 0).select(orderby=db.student.matric_no)\n    return dict(students=students, departid=departid, sessionid=sessionid)\n\ndef resultanalysis():\n    departid = request.vars.departid\n    sessionid = request.vars.sessionid\n    levels = \'NDI\' #request.vars.levels\n    request.vars.rpt = \'RESULT ANALYSIS\'\n    programs=db(db.program.department == departid).select()\n    program = programs.first()\n    studentqry = (db.student.school_level == levels) & (db.student.program.belongs(programs))\n    studentlist = db(studentqry).select()\n    myquery=db.registered_course.student.belongs(studentlist)\n    resultlist = db(myquery).select(db.registered_course.course_subject, db.registered_course.scores, db.registered_course.semester, db.registered_course.grade)\n    #distinctcourses = db(myquery).select(db.registered_course.course_subject, distinct=True)\n    semesters = db(myquery).select(db.registered_course.semester, db.registered_course.sessions, distinct=True)\n\n    courses = db(db.registered_course.student.belongs(studentlist)).select(db.registered_course.course_subject,db.registered_course.semester,  distinct=True)\n    grades=[\'AA\', \'A\', \'AB\', \'B\', \'BC\', \'C\', \'CD\', \'D\', \'E\']\n    std = []\n    i=0\n    #number = len(courses)\n\n    for course in courses:\n        diff = 0\n        #count = db.registered_course.scores.count()\n        average = db.registered_course.scores.avg()\n        mean = db(db.registered_course.course_subject == course.course_subject).select(average).first()[average]\n        #number = db(db.registered_course.course_subject == course.course_subject).select(count).first()[count]\n        resultsub = resultlist.find(lambda result: result.course_subject==course.course_subject)\n        number = len(resultsub) - 1\n        for result in resultsub:\n            \n            diff += round(math.fabs(result.scores - mean)**2, 2)\n\n        variance = round(math.sqrt(diff/number), 1)\n        std.append(variance)\n\n    #std = [6.0, 10.9, 5.8, 8.4, 7.9, 13.4, 5.9, 7.8, 9.0, 9.4, 1.1]\n\n    return dict(grades=grades, students=studentlist, semesters=semesters, courses = courses, results=resultlist, departid=departid, sessionid=sessionid, std=std, program=program.fullname)\n\nresponse._vars=response._caller(getdeptsession)\n'
p7
sS'snapshot'
p8
(dp9
S'exception'
p10
(dp11
S'__hash__'
p12
S"<method-wrapper '__hash__' of exceptions.AttributeError object>"
p13
sS'__setattr__'
p14
S"<method-wrapper '__setattr__' of exceptions.AttributeError object>"
p15
sS'__reduce_ex__'
p16
S'<built-in method __reduce_ex__ of exceptions.AttributeError object>'
p17
sS'__getslice__'
p18
S"<method-wrapper '__getslice__' of exceptions.AttributeError object>"
p19
sS'__getitem__'
p20
S"<method-wrapper '__getitem__' of exceptions.AttributeError object>"
p21
sS'__setstate__'
p22
S'<built-in method __setstate__ of exceptions.AttributeError object>'
p23
sS'args'
p24
S'("\'NoneType\' object has no attribute \'id\'",)'
p25
sS'__reduce__'
p26
S'<built-in method __reduce__ of exceptions.AttributeError object>'
p27
sS'__str__'
p28
S"<method-wrapper '__str__' of exceptions.AttributeError object>"
p29
sS'__format__'
p30
S'<built-in method __format__ of exceptions.AttributeError object>'
p31
sS'__getattribute__'
p32
S"<method-wrapper '__getattribute__' of exceptions.AttributeError object>"
p33
sS'__class__'
p34
S"<type 'exceptions.AttributeError'>"
p35
sS'__unicode__'
p36
S'<built-in method __unicode__ of exceptions.AttributeError object>'
p37
sS'__delattr__'
p38
S"<method-wrapper '__delattr__' of exceptions.AttributeError object>"
p39
sS'__subclasshook__'
p40
S'<built-in method __subclasshook__ of type object>'
p41
sS'__repr__'
p42
S"<method-wrapper '__repr__' of exceptions.AttributeError object>"
p43
sS'__dict__'
p44
S'{}'
p45
sS'__sizeof__'
p46
S'<built-in method __sizeof__ of exceptions.AttributeError object>'
p47
sS'__doc__'
p48
S"'Attribute not found.'"
p49
sS'__init__'
p50
S"<method-wrapper '__init__' of exceptions.AttributeError object>"
p51
sS'__new__'
p52
S'<built-in method __new__ of type object>'
p53
ssS'evalue'
p54
S"'NoneType' object has no attribute 'id'"
p55
sS'request'
p56
cgluon.html
XML_unpickle
p57
(S's\xe2P\x00\x00<div><table><tr><td style="font-weight:bold;vertical-align:top;">ajax</td><td style="vertical-align:top;">:</td><td><div>False</div></td></tr><tr><td style="font-weight:bold;vertical-align:top;">application</td><td style="vertical-align:top;">:</td><td><div>emisv001</div></td></tr><tr><td style="font-weight:bold;vertical-align:top;">args</td><td style="vertical-align:top;">:</td><td><div><table></table></div></td></tr><tr><td style="font-weight:bold;vertical-align:top;">cid</td><td style="vertical-align:top;">:</td><td><div>None</div></td></tr><tr><td style="font-weight:bold;vertical-align:top;">client</td><td style="vertical-align:top;">:</td><td><div>41.206.11.195</div></td></tr><tr><td style="font-weight:bold;vertical-align:top;">controller</td><td style="vertical-align:top;">:</td><td><div>emisreport</div></td></tr><tr><td style="font-weight:bold;vertical-align:top;">cookies</td><td style="vertical-align:top;">:</td><td><div><table><tr><td style="font-weight:bold;vertical-align:top;">session_id_admin</td><td style="vertical-align:top;">:</td><td><div>41.206.11.195-79d69a84-4404-4075-b78b-96ca48daf884<table><tr><td style="font-weight:bold;vertical-align:top;">comment</td><td style="vertical-align:top;">:</td><td><div></div></td></tr><tr><td style="font-weight:bold;vertical-align:top;">domain</td><td style="vertical-align:top;">:</td><td><div></div></td></tr><tr><td style="font-weight:bold;vertical-align:top;">expires</td><td style="vertical-align:top;">:</td><td><div></div></td></tr><tr><td style="font-weight:bold;vertical-align:top;">httponly</td><td style="vertical-align:top;">:</td><td><div></div></td></tr><tr><td style="font-weight:bold;vertical-align:top;">max-age</td><td style="vertical-align:top;">:</td><td><div></div></td></tr><tr><td style="font-weight:bold;vertical-align:top;">path</td><td style="vertical-align:top;">:</td><td><div></div></td></tr><tr><td style="font-weight:bold;vertical-align:top;">secure</td><td style="vertical-align:top;">:</td><td><div></div></td></tr><tr><td style="font-weight:bold;vertical-align:top;">version</td><td style="vertical-align:top;">:</td><td><div></div></td></tr></table></div></td></tr><tr><td style="font-weight:bold;vertical-align:top;">session_id_emisv001</td><td style="vertical-align:top;">:</td><td><div>41.206.11.195-363135c0-e429-4cce-927f-d109edd5edcf<table><tr><td style="font-weight:bold;vertical-align:top;">comment</td><td style="vertical-align:top;">:</td><td><div></div></td></tr><tr><td style="font-weight:bold;vertical-align:top;">domain</td><td style="vertical-align:top;">:</td><td><div></div></td></tr><tr><td style="font-weight:bold;vertical-align:top;">expires</td><td style="vertical-align:top;">:</td><td><div></div></td></tr><tr><td style="font-weight:bold;vertical-align:top;">httponly</td><td style="vertical-align:top;">:</td><td><div></div></td></tr><tr><td style="font-weight:bold;vertical-align:top;">max-age</td><td style="vertical-align:top;">:</td><td><div></div></td></tr><tr><td style="font-weight:bold;vertical-align:top;">path</td><td style="vertical-align:top;">:</td><td><div></div></td></tr><tr><td style="font-weight:bold;vertical-align:top;">secure</td><td style="vertical-align:top;">:</td><td><div></div></td></tr><tr><td style="font-weight:bold;vertical-align:top;">version</td><td style="vertical-align:top;">:</td><td><div></div></td></tr></table></div></td></tr></table></div></td></tr><tr><td style="font-weight:bold;vertical-align:top;">env</td><td style="vertical-align:top;">:</td><td><div><table><tr><td style="font-weight:bold;vertical-align:top;">CONTENT_LENGTH</td><td style="vertical-align:top;">:</td><td><div></div></td></tr><tr><td style="font-weight:bold;vertical-align:top;">CONTENT_TYPE</td><td style="vertical-align:top;">:</td><td><div></div></td></tr><tr><td style="font-weight:bold;vertical-align:top;">DOCUMENT_ROOT</td><td style="vertical-align:top;">:</td><td><div>/usr/share/nginx/html</div></td></tr><tr><td style="font-weight:bold;vertical-align:top;">HTTP_ACCEPT</td><td style="vertical-align:top;">:</td><td><div>text/html,application/xhtml+xml,application/xml;q=0.9,image/webp,*/*;q=0.8</div></td></tr><tr><td style="font-weight:bold;vertical-align:top;">HTTP_ACCEPT_ENCODING</td><td style="vertical-align:top;">:</td><td><div>gzip, deflate, sdch</div></td></tr><tr><td style="font-weight:bold;vertical-align:top;">HTTP_ACCEPT_LANGUAGE</td><td style="vertical-align:top;">:</td><td><div>en-US,en;q=0.8</div></td></tr><tr><td style="font-weight:bold;vertical-align:top;">HTTP_CONNECTION</td><td style="vertical-align:top;">:</td><td><div>keep-alive</div></td></tr><tr><td style="font-weight:bold;vertical-align:top;">HTTP_COOKIE</td><td style="vertical-align:top;">:</td><td><div>session_id_admin=41.206.11.195-79d69a84-4404-4075-b78b-96ca48daf884; session_id_emisv001=41.206.11.195-363135c0-e429-4cce-927f-d109edd5edcf</div></td></tr><tr><td style="font-weight:bold;vertical-align:top;">HTTP_HOST</td><td style="vertical-align:top;">:</td><td><div>ec2-50-112-169-0.us-west-2.compute.amazonaws.com</div></td></tr><tr><td style="font-weight:bold;vertical-align:top;">HTTP_REFERER</td><td style="vertical-align:top;">:</td><td><div>https://ec2-50-112-169-0.us-west-2.compute.amazonaws.com/emisv001/default/examrecord_page</div></td></tr><tr><td style="font-weight:bold;vertical-align:top;">HTTP_USER_AGENT</td><td style="vertical-align:top;">:</td><td><div>Mozilla/5.0 (Windows NT 6.1) AppleWebKit/537.36 (KHTML, like Gecko) Chrome/42.0.2311.135 Safari/537.36</div></td></tr><tr><td style="font-weight:bold;vertical-align:top;">PATH_INFO</td><td style="vertical-align:top;">:</td><td><div>/emisv001/emisreport/getdeptsession</div></td></tr><tr><td style="font-weight:bold;vertical-align:top;">QUERY_STRING</td><td style="vertical-align:top;">:</td><td><div></div></td></tr><tr><td style="font-weight:bold;vertical-align:top;">REMOTE_ADDR</td><td style="vertical-align:top;">:</td><td><div>41.206.11.195</div></td></tr><tr><td style="font-weight:bold;vertical-align:top;">REMOTE_PORT</td><td style="vertical-align:top;">:</td><td><div>54703</div></td></tr><tr><td style="font-weight:bold;vertical-align:top;">REQUEST_METHOD</td><td style="vertical-align:top;">:</td><td><div>GET</div></td></tr><tr><td style="font-weight:bold;vertical-align:top;">REQUEST_URI</td><td style="vertical-align:top;">:</td><td><div>/emisv001/emisreport/getdeptsession</div></td></tr><tr><td style="font-weight:bold;vertical-align:top;">SERVER_NAME</td><td style="vertical-align:top;">:</td><td><div>ip-172-31-41-75</div></td></tr><tr><td style="font-weight:bold;vertical-align:top;">SERVER_PORT</td><td style="vertical-align:top;">:</td><td><div>443</div></td></tr><tr><td style="font-weight:bold;vertical-align:top;">SERVER_PROTOCOL</td><td style="vertical-align:top;">:</td><td><div>HTTP/1.1</div></td></tr><tr><td style="font-weight:bold;vertical-align:top;">SERVER_SOFTWARE</td><td style="vertical-align:top;">:</td><td><div>nginx/1.4.6</div></td></tr><tr><td style="font-weight:bold;vertical-align:top;">UWSGI_SCHEME</td><td style="vertical-align:top;">:</td><td><div>https</div></td></tr><tr><td style="font-weight:bold;vertical-align:top;">app_folders</td><td style="vertical-align:top;">:</td><td><div>set([&#x27;/home/www-data/web2py/applications/emis/&#x27;, &#x27;/home/www-data/web2py/applications/emisv001/&#x27;, &#x27;/home/www-data/web2py/applications/welcome/&#x27;, &#x27;/home/www-data/web2py/applications/admin/&#x27;, &#x27;/home/www-data/web2py/applications/armis/&#x27;, &#x27;/home/www-data/web2py/applications/eduman/&#x27;])</div></td></tr><tr><td style="font-weight:bold;vertical-align:top;">applications_parent</td><td style="vertical-align:top;">:</td><td><div>/home/www-data/web2py</div></td></tr><tr><td style="font-weight:bold;vertical-align:top;">content_length</td><td style="vertical-align:top;">:</td><td><div></div></td></tr><tr><td style="font-weight:bold;vertical-align:top;">content_type</td><td style="vertical-align:top;">:</td><td><div></div></td></tr><tr><td style="font-weight:bold;vertical-align:top;">db_sessions</td><td style="vertical-align:top;">:</td><td><div>set([])</div></td></tr><tr><td style="font-weight:bold;vertical-align:top;">debugging</td><td style="vertical-align:top;">:</td><td><div>True</div></td></tr><tr><td style="font-weight:bold;vertical-align:top;">document_root</td><td style="vertical-align:top;">:</td><td><div>/usr/share/nginx/html</div></td></tr><tr><td style="font-weight:bold;vertical-align:top;">gluon_parent</td><td style="vertical-align:top;">:</td><td><div>/home/www-data/web2py</div></td></tr><tr><td style="font-weight:bold;vertical-align:top;">http_accept</td><td style="vertical-align:top;">:</td><td><div>text/html,application/xhtml+xml,application/xml;q=0.9,image/webp,*/*;q=0.8</div></td></tr><tr><td style="font-weight:bold;vertical-align:top;">http_accept_encoding</td><td style="vertical-align:top;">:</td><td><div>gzip, deflate, sdch</div></td></tr><tr><td style="font-weight:bold;vertical-align:top;">http_accept_language</td><td style="vertical-align:top;">:</td><td><div>en-US,en;q=0.8</div></td></tr><tr><td style="font-weight:bold;vertical-align:top;">http_connection</td><td style="vertical-align:top;">:</td><td><div>keep-alive</div></td></tr><tr><td style="font-weight:bold;vertical-align:top;">http_cookie</td><td style="vertical-align:top;">:</td><td><div>session_id_admin=41.206.11.195-79d69a84-4404-4075-b78b-96ca48daf884; session_id_emisv001=41.206.11.195-363135c0-e429-4cce-927f-d109edd5edcf</div></td></tr><tr><td style="font-weight:bold;vertical-align:top;">http_host</td><td style="vertical-align:top;">:</td><td><div>ec2-50-112-169-0.us-west-2.compute.amazonaws.com</div></td></tr><tr><td style="font-weight:bold;vertical-align:top;">http_referer</td><td style="vertical-align:top;">:</td><td><div>https://ec2-50-112-169-0.us-west-2.compute.amazonaws.com/emisv001/default/examrecord_page</div></td></tr><tr><td style="font-weight:bold;vertical-align:top;">http_user_agent</td><td style="vertical-align:top;">:</td><td><div>Mozilla/5.0 (Windows NT 6.1) AppleWebKit/537.36 (KHTML, like Gecko) Chrome/42.0.2311.135 Safari/537.36</div></td></tr><tr><td style="font-weight:bold;vertical-align:top;">is_jython</td><td style="vertical-align:top;">:</td><td><div>False</div></td></tr><tr><td style="font-weight:bold;vertical-align:top;">is_pypy</td><td style="vertical-align:top;">:</td><td><div>False</div></td></tr><tr><td style="font-weight:bold;vertical-align:top;">is_source</td><td style="vertical-align:top;">:</td><td><div>True</div></td></tr><tr><td style="font-weight:bold;vertical-align:top;">local_hosts</td><td style="vertical-align:top;">:</td><td><div><table><tr><td><div>ip-172-31-41-75</div></td></tr><tr><td><div>ip-172-31-41-75.us-west-2.compute.internal</div></td></tr><tr><td><div>::ffff:127.0.0.1</div></td></tr><tr><td><div>::1</div></td></tr><tr><td><div>172.31.41.75</div></td></tr><tr><td><div>127.0.0.1</div></td></tr></table></div></td></tr><tr><td style="font-weight:bold;vertical-align:top;">path_info</td><td style="vertical-align:top;">:</td><td><div>/emisv001/emisreport/getdeptsession</div></td></tr><tr><td style="font-weight:bold;vertical-align:top;">query_string</td><td style="vertical-align:top;">:</td><td><div></div></td></tr><tr><td style="font-weight:bold;vertical-align:top;">remote_addr</td><td style="vertical-align:top;">:</td><td><div>41.206.11.195</div></td></tr><tr><td style="font-weight:bold;vertical-align:top;">remote_port</td><td style="vertical-align:top;">:</td><td><div>54703</div></td></tr><tr><td style="font-weight:bold;vertical-align:top;">request_method</td><td style="vertical-align:top;">:</td><td><div>GET</div></td></tr><tr><td style="font-weight:bold;vertical-align:top;">request_uri</td><td style="vertical-align:top;">:</td><td><div>/emisv001/emisreport/getdeptsession</div></td></tr><tr><td style="font-weight:bold;vertical-align:top;">server_name</td><td style="vertical-align:top;">:</td><td><div>ip-172-31-41-75</div></td></tr><tr><td style="font-weight:bold;vertical-align:top;">server_port</td><td style="vertical-align:top;">:</td><td><div>443</div></td></tr><tr><td style="font-weight:bold;vertical-align:top;">server_protocol</td><td style="vertical-align:top;">:</td><td><div>HTTP/1.1</div></td></tr><tr><td style="font-weight:bold;vertical-align:top;">server_software</td><td style="vertical-align:top;">:</td><td><div>nginx/1.4.6</div></td></tr><tr><td style="font-weight:bold;vertical-align:top;">uwsgi.node</td><td style="vertical-align:top;">:</td><td><div>ip-172-31-41-75</div></td></tr><tr><td style="font-weight:bold;vertical-align:top;">uwsgi.version</td><td style="vertical-align:top;">:</td><td><div>2.0.6</div></td></tr><tr><td style="font-weight:bold;vertical-align:top;">uwsgi_node</td><td style="vertical-align:top;">:</td><td><div>ip-172-31-41-75</div></td></tr><tr><td style="font-weight:bold;vertical-align:top;">uwsgi_scheme</td><td style="vertical-align:top;">:</td><td><div>https</div></td></tr><tr><td style="font-weight:bold;vertical-align:top;">uwsgi_version</td><td style="vertical-align:top;">:</td><td><div>2.0.6</div></td></tr><tr><td style="font-weight:bold;vertical-align:top;">web2py_path</td><td style="vertical-align:top;">:</td><td><div>/home/www-data/web2py</div></td></tr><tr><td style="font-weight:bold;vertical-align:top;">web2py_version</td><td style="vertical-align:top;">:</td><td><div>2.10.4-stable+timestamp.2015.04.26.15.11.54</div></td></tr><tr><td style="font-weight:bold;vertical-align:top;">wsgi.errors</td><td style="vertical-align:top;">:</td><td><div>&lt;open file &#x27;wsgi_errors&#x27;, mode &#x27;w&#x27; at 0x7fcb4ecdbb70&gt;</div></td></tr><tr><td style="font-weight:bold;vertical-align:top;">wsgi.file_wrapper</td><td style="vertical-align:top;">:</td><td><div>&lt;built-in function uwsgi_sendfile&gt;</div></td></tr><tr><td style="font-weight:bold;vertical-align:top;">wsgi.input</td><td style="vertical-align:top;">:</td><td><div>&lt;uwsgi._Input object at 0x7fcb4de732a0&gt;</div></td></tr><tr><td style="font-weight:bold;vertical-align:top;">wsgi.multiprocess</td><td style="vertical-align:top;">:</td><td><div>True</div></td></tr><tr><td style="font-weight:bold;vertical-align:top;">wsgi.multithread</td><td style="vertical-align:top;">:</td><td><div>False</div></td></tr><tr><td style="font-weight:bold;vertical-align:top;">wsgi.run_once</td><td style="vertical-align:top;">:</td><td><div>False</div></td></tr><tr><td style="font-weight:bold;vertical-align:top;">wsgi.url_scheme</td><td style="vertical-align:top;">:</td><td><div>https</div></td></tr><tr><td style="font-weight:bold;vertical-align:top;">wsgi.version</td><td style="vertical-align:top;">:</td><td><div><table><tr><td><div>1</div></td></tr><tr><td><div>0</div></td></tr></table></div></td></tr><tr><td style="font-weight:bold;vertical-align:top;">wsgi_errors</td><td style="vertical-align:top;">:</td><td><div>&lt;open file &#x27;wsgi_errors&#x27;, mode &#x27;w&#x27; at 0x7fcb4ecdbb70&gt;</div></td></tr><tr><td style="font-weight:bold;vertical-align:top;">wsgi_file_wrapper</td><td style="vertical-align:top;">:</td><td><div>&lt;built-in function uwsgi_sendfile&gt;</div></td></tr><tr><td style="font-weight:bold;vertical-align:top;">wsgi_input</td><td style="vertical-align:top;">:</td><td><div>&lt;uwsgi._Input object at 0x7fcb4de732a0&gt;</div></td></tr><tr><td style="font-weight:bold;vertical-align:top;">wsgi_multiprocess</td><td style="vertical-align:top;">:</td><td><div>True</div></td></tr><tr><td style="font-weight:bold;vertical-align:top;">wsgi_multithread</td><td style="vertical-align:top;">:</td><td><div>False</div></td></tr><tr><td style="font-weight:bold;vertical-align:top;">wsgi_run_once</td><td style="vertical-align:top;">:</td><td><div>False</div></td></tr><tr><td style="font-weight:bold;vertical-align:top;">wsgi_url_scheme</td><td style="vertical-align:top;">:</td><td><div>https</div></td></tr><tr><td style="font-weight:bold;vertical-align:top;">wsgi_version</td><td style="vertical-align:top;">:</td><td><div><table><tr><td><div>1</div></td></tr><tr><td><div>0</div></td></tr></table></div></td></tr></table></div></td></tr><tr><td style="font-weight:bold;vertical-align:top;">extension</td><td style="vertical-align:top;">:</td><td><div>html</div></td></tr><tr><td style="font-weight:bold;vertical-align:top;">folder</td><td style="vertical-align:top;">:</td><td><div>/home/www-data/web2py/applications/emisv001/</div></td></tr><tr><td style="font-weight:bold;vertical-align:top;">function</td><td style="vertical-align:top;">:</td><td><div>getdeptsession</div></td></tr><tr><td style="font-weight:bold;vertical-align:top;">global_settings</td><td style="vertical-align:top;">:</td><td><div><table><tr><td style="font-weight:bold;vertical-align:top;">app_folders</td><td style="vertical-align:top;">:</td><td><div>set([&#x27;/home/www-data/web2py/applications/emis/&#x27;, &#x27;/home/www-data/web2py/applications/emisv001/&#x27;, &#x27;/home/www-data/web2py/applications/welcome/&#x27;, &#x27;/home/www-data/web2py/applications/admin/&#x27;, &#x27;/home/www-data/web2py/applications/armis/&#x27;, &#x27;/home/www-data/web2py/applications/eduman/&#x27;])</div></td></tr><tr><td style="font-weight:bold;vertical-align:top;">applications_parent</td><td style="vertical-align:top;">:</td><td><div>/home/www-data/web2py</div></td></tr><tr><td style="font-weight:bold;vertical-align:top;">db_sessions</td><td style="vertical-align:top;">:</td><td><div>set([])</div></td></tr><tr><td style="font-weight:bold;vertical-align:top;">debugging</td><td style="vertical-align:top;">:</td><td><div>True</div></td></tr><tr><td style="font-weight:bold;vertical-align:top;">gluon_parent</td><td style="vertical-align:top;">:</td><td><div>/home/www-data/web2py</div></td></tr><tr><td style="font-weight:bold;vertical-align:top;">is_jython</td><td style="vertical-align:top;">:</td><td><div>False</div></td></tr><tr><td style="font-weight:bold;vertical-align:top;">is_pypy</td><td style="vertical-align:top;">:</td><td><div>False</div></td></tr><tr><td style="font-weight:bold;vertical-align:top;">is_source</td><td style="vertical-align:top;">:</td><td><div>True</div></td></tr><tr><td style="font-weight:bold;vertical-align:top;">local_hosts</td><td style="vertical-align:top;">:</td><td><div><table><tr><td><div>ip-172-31-41-75</div></td></tr><tr><td><div>ip-172-31-41-75.us-west-2.compute.internal</div></td></tr><tr><td><div>::ffff:127.0.0.1</div></td></tr><tr><td><div>::1</div></td></tr><tr><td><div>172.31.41.75</div></td></tr><tr><td><div>127.0.0.1</div></td></tr></table></div></td></tr><tr><td style="font-weight:bold;vertical-align:top;">web2py_version</td><td style="vertical-align:top;">:</td><td><div>2.10.4-stable+timestamp.2015.04.26.15.11.54</div></td></tr></table></div></td></tr><tr><td style="font-weight:bold;vertical-align:top;">is_https</td><td style="vertical-align:top;">:</td><td><div>True</div></td></tr><tr><td style="font-weight:bold;vertical-align:top;">is_local</td><td style="vertical-align:top;">:</td><td><div>False</div></td></tr><tr><td style="font-weight:bold;vertical-align:top;">is_restful</td><td style="vertical-align:top;">:</td><td><div>False</div></td></tr><tr><td style="font-weight:bold;vertical-align:top;">is_sheduler</td><td style="vertical-align:top;">:</td><td><div>None</div></td></tr><tr><td style="font-weight:bold;vertical-align:top;">is_shell</td><td style="vertical-align:top;">:</td><td><div>None</div></td></tr><tr><td style="font-weight:bold;vertical-align:top;">now</td><td style="vertical-align:top;">:</td><td><div>datetime.datetime(2015, 5, 15, 16, 59, 11, 985367)</div></td></tr><tr><td style="font-weight:bold;vertical-align:top;">raw_args</td><td style="vertical-align:top;">:</td><td><div></div></td></tr><tr><td style="font-weight:bold;vertical-align:top;">raw_extension</td><td style="vertical-align:top;">:</td><td><div>None</div></td></tr><tr><td style="font-weight:bold;vertical-align:top;">url</td><td style="vertical-align:top;">:</td><td><div>/emisv001/emisreport/getdeptsession</div></td></tr><tr><td style="font-weight:bold;vertical-align:top;">utcnow</td><td style="vertical-align:top;">:</td><td><div>datetime.datetime(2015, 5, 15, 16, 59, 11, 985382)</div></td></tr><tr><td style="font-weight:bold;vertical-align:top;">uuid</td><td style="vertical-align:top;">:</td><td><div>emisv001/41.206.11.195.2015-05-15.16-59-11.6aeb7972-b82a-4411-8853-f31fbd5fde88</div></td></tr><tr><td style="font-weight:bold;vertical-align:top;">wsgi</td><td style="vertical-align:top;">:</td><td><div>&lt;gluon.main.LazyWSGI object at 0x7fcb4dfdfad0&gt;</div></td></tr></table></div>'
tRp58
sS'frames'
p59
(lp60
(dp61
S'file'
p62
S'/home/www-data/web2py/gluon/restricted.py'
p63
sS'dump'
p64
(dp65
S'environment'
p66
S"{'A': <class 'gluon.html.A'>, 'ANY_OF': <class 'gluon.validators.ANY_OF'>, 'ASSIGNJS': <function ASSIGNJS>, 'Auth': <class 'gluon.tools.Auth'>, 'B': <class 'gluon.html.B'>, 'BEAUTIFY': <class 'gluon.html.BEAUTIFY'>, 'BODY': <class 'gluon.html.BODY'>, 'BR': <class 'gluon.html.BR'>, 'BUTTON': <class 'gluon.html.BUTTON'>, 'CAT': <class 'gluon.html.CAT'>, ...}"
p67
sS'ccode'
p68
S'<code object <module> at 0x7fcb4de638b0, file "/...ions/emisv001/controllers/emisreport.py", line 4>'
p69
ssS'lnum'
p70
I227
sS'lines'
p71
(dp72
I224
S'            ccode = code'
p73
sI225
S'        else:'
p74
sI226
S'            ccode = compile2(code, layer)'
p75
sI227
S'        exec ccode in environment'
p76
sI228
S'    except HTTP:'
p77
sI229
S'        raise'
p78
sI230
S'    except RestrictedError:'
p79
sI231
S'        # do not encapsulate (obfuscate) the original RestrictedError'
p80
sI222
S'    try:'
p81
sI223
S'        if isinstance(code, types.CodeType):'
p82
ssS'call'
p83
S"(code='# coding: utf8\\n# try something like\\n#app_root/co...\\nresponse._vars=response._caller(getdeptsession)\\n', environment={'A': <class 'gluon.html.A'>, 'ANY_OF': <class 'gluon.validators.ANY_OF'>, 'ASSIGNJS': <function ASSIGNJS>, 'Auth': <class 'gluon.tools.Auth'>, 'B': <class 'gluon.html.B'>, 'BEAUTIFY': <class 'gluon.html.BEAUTIFY'>, 'BODY': <class 'gluon.html.BODY'>, 'BR': <class 'gluon.html.BR'>, 'BUTTON': <class 'gluon.html.BUTTON'>, 'CAT': <class 'gluon.html.CAT'>, ...}, layer='/home/www-data/web2py/applications/emisv001/controllers/emisreport.py')"
p84
sS'func'
p85
S'restricted'
p86
sa(dp87
g62
S'/home/www-data/web2py/applications/emisv001/controllers/emisreport.py'
p88
sg64
(dp89
sg70
I244
sg71
(dp90
I233
S'        for result in resultsub:'
p91
sI234
S''
sI235
S'            diff += round(math.fabs(result.scores - mean)**2, 2)'
p92
sI236
S''
sI237
S'        variance = round(math.sqrt(diff/number), 1)'
p93
sI238
S'        std.append(variance)'
p94
sI239
S''
sI240
S'    #std = [6.0, 10.9, 5.8, 8.4, 7.9, 13.4, 5.9, 7.8, 9.0, 9.4, 1.1]'
p95
sI241
S''
sI242
S'    return dict(grades=grades, students=studentlist, semesters=semesters, courses = courses, results=resultlist, departid=departid, sessionid=sessionid, std=std, program=program.fullname)'
p96
ssg83
S'()'
p97
sg85
S'<module>'
p98
sa(dp99
g62
S'/home/www-data/web2py/gluon/globals.py'
p100
sg64
(dp101
S'self'
p102
S'undefined'
p103
sS'f'
S'<function getdeptsession>'
p104
ssg70
I393
sg71
(dp105
I388
S"        self.flash = ''            # used by the default view layout"
p106
sI389
S'        self.meta = Storage()      # used by web2py_ajax.html'
p107
sI390
S'        self.menu = []             # used by the default view layout'
p108
sI391
S'        self.files = []            # used by web2py_ajax.html'
p109
sI392
S'        self._vars = None'
p110
sI393
S'        self._caller = lambda f: f()'
p111
sI394
S'        self._view_environment = None'
p112
sI395
S'        self._custom_commit = None'
p113
sI396
S'        self._custom_rollback = None'
p114
sI397
S"        self.generic_patterns = ['*']"
p115
ssg83
S'(f=<function getdeptsession>)'
p116
sg85
S'<lambda>'
p117
sa(dp118
g62
S'/home/www-data/web2py/gluon/tools.py'
p119
sg64
(dp120
S'action'
p121
S'<function getdeptsession>'
p122
sS'a'
S'()'
p123
sS'b'
g45
ssg70
I3440
sg71
(dp124
I3435
S'                    flag = condition'
p125
sI3436
S'                if not flag:'
p126
sI3437
S'                    current.session.flash = self.messages.access_denied'
p127
sI3438
S'                    return call_or_redirect('
p128
sI3439
S'                        self.settings.on_failed_authorization)'
p129
sI3440
S'                return action(*a, **b)'
p130
sI3441
S'            f.__doc__ = action.__doc__'
p131
sI3442
S'            f.__name__ = action.__name__'
p132
sI3443
S'            f.__dict__.update(action.__dict__)'
p133
sI3444
S'            return f'
p134
ssg83
S'(*a=(), **b={})'
p135
sg85
S'f'
sa(dp136
g62
S'/home/www-data/web2py/applications/emisv001/controllers/emisreport.py'
p137
sg64
(dp138
S'depart'
p139
S'None'
p140
sS'global Field'
p141
S"<class 'pydal.objects.Field'>"
p142
sS'global SQLFORM'
p143
S"<class 'gluon.sqlhtml.SQLFORM'>"
p144
sS'db.department.id'
p145
S'<pydal.objects.Field object>'
p146
sS'db.school_session.name'
p147
S'<pydal.objects.Field object>'
p148
sS'inputform'
p149
g103
sS'SQLFORM.factory'
p150
S'<function factory>'
p151
sS'db.department'
p152
S'<Table department (id,school,name,HOD,is_active,created_on,created_by,modified_on,modified_by)>'
p153
sS'db.school_session'
p154
S'<Table school_session (id,name,session_begin,ses...e,created_on,created_by,modified_on,modified_by)>'
p155
sS'global IS_IN_SET'
p156
S"<class 'gluon.validators.IS_IN_SET'>"
p157
sS'global IS_IN_DB'
p158
S"<class 'gluon.validators.IS_IN_DB'>"
p159
sS'global db'
p160
S'<DAL uri="sqlite://storage.sqlite">'
p161
sS'db.department.name'
p162
S'<pydal.objects.Field object>'
p163
sS'requires'
p164
g103
sS'depart.id'
p165
g103
ssg70
I96
sg71
(dp166
I96
S"    inputform = SQLFORM.factory(Field('department', 'reference department', requires=IS_IN_DB(db(db.department.id==depart.id), db.department.name)),"
p167
sI97
S"                                Field('session', 'reference school_session', requires=IS_IN_DB(db, db.school_session.name, '%(name)s')),"
p168
sI98
S"                                Field('levels', requires=IS_IN_SET(['NDI', 'NDII', 'HNDI', 'HNDII', 'PGD'])),"
p169
sI99
S'                                )'
p170
sI100
S'    if inputform.process().accepted:'
p171
sI91
S'    return dict(student=student, results=result, sessn = sessn, departid=departid, schoolid=schoolid, smester=smester, semesters=semesters, program=progname)'
p172
sI92
S"@auth.requires_membership('hod')"
p173
sI93
S'def getdeptsession():'
p174
sI94
S'    depart = db.department(HOD=auth.user.id)'
p175
sI95
S''
ssg83
S'()'
p176
sg85
S'getdeptsession'
p177
sasS'pyver'
p178
S'Python 2.7.6: /usr/local/bin/uwsgi (prefix: /usr)'
p179
sS'session'
p180
g57
(S's\xef\n\x00\x00<div><table><tr><td style="font-weight:bold;vertical-align:top;">auth</td><td style="vertical-align:top;">:</td><td><div><table><tr><td style="font-weight:bold;vertical-align:top;">expiration</td><td style="vertical-align:top;">:</td><td><div>3600</div></td></tr><tr><td style="font-weight:bold;vertical-align:top;">hmac_key</td><td style="vertical-align:top;">:</td><td><div>9e9a0f0a-37bf-4abf-964e-879c9c864724</div></td></tr><tr><td style="font-weight:bold;vertical-align:top;">last_visit</td><td style="vertical-align:top;">:</td><td><div>datetime.datetime(2015, 5, 15, 16, 57, 41, 385920)</div></td></tr><tr><td style="font-weight:bold;vertical-align:top;">remember_me</td><td style="vertical-align:top;">:</td><td><div>False</div></td></tr><tr><td style="font-weight:bold;vertical-align:top;">user</td><td style="vertical-align:top;">:</td><td><div><table><tr><td style="font-weight:bold;vertical-align:top;">email</td><td style="vertical-align:top;">:</td><td><div>afitwebsite@gmail.com</div></td></tr><tr><td style="font-weight:bold;vertical-align:top;">first_name</td><td style="vertical-align:top;">:</td><td><div>Samuel</div></td></tr><tr><td style="font-weight:bold;vertical-align:top;">id</td><td style="vertical-align:top;">:</td><td><div>8L</div></td></tr><tr><td style="font-weight:bold;vertical-align:top;">last_name</td><td style="vertical-align:top;">:</td><td><div>Asogwa</div></td></tr><tr><td style="font-weight:bold;vertical-align:top;">registration_id</td><td style="vertical-align:top;">:</td><td><div></div></td></tr><tr><td style="font-weight:bold;vertical-align:top;">registration_key</td><td style="vertical-align:top;">:</td><td><div></div></td></tr><tr><td style="font-weight:bold;vertical-align:top;">reset_password_key</td><td style="vertical-align:top;">:</td><td><div></div></td></tr></table></div></td></tr><tr><td style="font-weight:bold;vertical-align:top;">user_groups</td><td style="vertical-align:top;">:</td><td><div><table><tr><td style="font-weight:bold;vertical-align:top;">1</td><td style="vertical-align:top;">:</td><td><div>registry</div></td></tr><tr><td style="font-weight:bold;vertical-align:top;">2</td><td style="vertical-align:top;">:</td><td><div>misofficer</div></td></tr><tr><td style="font-weight:bold;vertical-align:top;">4</td><td style="vertical-align:top;">:</td><td><div>admin</div></td></tr><tr><td style="font-weight:bold;vertical-align:top;">5</td><td style="vertical-align:top;">:</td><td><div>guest</div></td></tr><tr><td style="font-weight:bold;vertical-align:top;">6</td><td style="vertical-align:top;">:</td><td><div>hod</div></td></tr></table></div></td></tr></table></div></td></tr><tr><td style="font-weight:bold;vertical-align:top;">flash</td><td style="vertical-align:top;">:</td><td><div>None</div></td></tr></table></div>'
tRp181
sS'etype'
p182
S"<type 'exceptions.AttributeError'>"
p183
sS'date'
p184
S'Fri May 15 16:59:12 2015'
p185
sS'response'
p186
g57
(S's\x05!\x00\x00<div><table><tr><td style="font-weight:bold;vertical-align:top;">body</td><td style="vertical-align:top;">:</td><td><div>&lt;cStringIO.StringO object at 0x7fcb4de4ded8&gt;</div></td></tr><tr><td style="font-weight:bold;vertical-align:top;">cookies</td><td style="vertical-align:top;">:</td><td><div><table><tr><td style="font-weight:bold;vertical-align:top;">session_id_emisv001</td><td style="vertical-align:top;">:</td><td><div>41.206.11.195-363135c0-e429-4cce-927f-d109edd5edcf<table><tr><td style="font-weight:bold;vertical-align:top;">comment</td><td style="vertical-align:top;">:</td><td><div></div></td></tr><tr><td style="font-weight:bold;vertical-align:top;">domain</td><td style="vertical-align:top;">:</td><td><div></div></td></tr><tr><td style="font-weight:bold;vertical-align:top;">expires</td><td style="vertical-align:top;">:</td><td><div></div></td></tr><tr><td style="font-weight:bold;vertical-align:top;">httponly</td><td style="vertical-align:top;">:</td><td><div></div></td></tr><tr><td style="font-weight:bold;vertical-align:top;">max-age</td><td style="vertical-align:top;">:</td><td><div></div></td></tr><tr><td style="font-weight:bold;vertical-align:top;">path</td><td style="vertical-align:top;">:</td><td><div>/</div></td></tr><tr><td style="font-weight:bold;vertical-align:top;">secure</td><td style="vertical-align:top;">:</td><td><div></div></td></tr><tr><td style="font-weight:bold;vertical-align:top;">version</td><td style="vertical-align:top;">:</td><td><div></div></td></tr></table></div></td></tr></table></div></td></tr><tr><td style="font-weight:bold;vertical-align:top;">delimiters</td><td style="vertical-align:top;">:</td><td><div><table><tr><td><div>{{</div></td></tr><tr><td><div>}}</div></td></tr></table></div></td></tr><tr><td style="font-weight:bold;vertical-align:top;">files</td><td style="vertical-align:top;">:</td><td><div><table></table></div></td></tr><tr><td style="font-weight:bold;vertical-align:top;">flash</td><td style="vertical-align:top;">:</td><td><div></div></td></tr><tr><td style="font-weight:bold;vertical-align:top;">form_label_separator</td><td style="vertical-align:top;">:</td><td><div>: </div></td></tr><tr><td style="font-weight:bold;vertical-align:top;">formstyle</td><td style="vertical-align:top;">:</td><td><div>table3cols</div></td></tr><tr><td style="font-weight:bold;vertical-align:top;">generic_patterns</td><td style="vertical-align:top;">:</td><td><div><table></table></div></td></tr><tr><td style="font-weight:bold;vertical-align:top;">google_analytics_id</td><td style="vertical-align:top;">:</td><td><div>None</div></td></tr><tr><td style="font-weight:bold;vertical-align:top;">headers</td><td style="vertical-align:top;">:</td><td><div><table><tr><td style="font-weight:bold;vertical-align:top;">X-Powered-By</td><td style="vertical-align:top;">:</td><td><div>web2py</div></td></tr></table></div></td></tr><tr><td style="font-weight:bold;vertical-align:top;">logo</td><td style="vertical-align:top;">:</td><td><div><a class="brand" href="http://www.afit.edu.ng"><b>web<span>2</span>py</b>&trade;&nbsp;</a></div></td></tr><tr><td style="font-weight:bold;vertical-align:top;">menu</td><td style="vertical-align:top;">:</td><td><div><table><tr><td><div><table><tr><td><div><span class="list-group-item list-group-item">Home</span></div></td></tr><tr><td><div>False</div></td></tr><tr><td><div>/emisv001/default/index</div></td></tr><tr><td><div><table></table></div></td></tr></table></div></td></tr><tr><td><div><table><tr><td><div><span class="list-group-item list-group-item">Students</span></div></td></tr><tr><td><div>False</div></td></tr><tr><td><div>/emisv001/default/student_page</div></td></tr></table></div></td></tr><tr><td><div><table><tr><td><div><span class="list-group-item list-group-item">Departments</span></div></td></tr><tr><td><div>False</div></td></tr><tr><td><div>/emisv001/default/department</div></td></tr></table></div></td></tr><tr><td><div><table><tr><td><div><span class="list-group-item list-group-item">Schools</span></div></td></tr><tr><td><div>False</div></td></tr><tr><td><div>#</div></td></tr></table></div></td></tr><tr><td><div><table><tr><td><div><span class="list-group-item list-group-item">Account</span></div></td></tr><tr><td><div>False</div></td></tr><tr><td><div>/emisv001/default/afitpay</div></td></tr></table></div></td></tr></table></div></td></tr><tr><td style="font-weight:bold;vertical-align:top;">meta</td><td style="vertical-align:top;">:</td><td><div><table><tr><td style="font-weight:bold;vertical-align:top;">author</td><td style="vertical-align:top;">:</td><td><div>Henry Ajere &lt;henro.ajere@gmail.com&gt;</div></td></tr><tr><td style="font-weight:bold;vertical-align:top;">generator</td><td style="vertical-align:top;">:</td><td><div>Web2py Web Framework</div></td></tr><tr><td style="font-weight:bold;vertical-align:top;">keywords</td><td style="vertical-align:top;">:</td><td><div>web2py, python, framework</div></td></tr></table></div></td></tr><tr><td style="font-weight:bold;vertical-align:top;">models_to_run</td><td style="vertical-align:top;">:</td><td><div><table><tr><td><div>^\\w+\\.py$</div></td></tr><tr><td><div>^emisreport/\\w+\\.py$</div></td></tr><tr><td><div>^emisreport/getdeptsession/\\w+\\.py$</div></td></tr></table></div></td></tr><tr><td style="font-weight:bold;vertical-align:top;">postprocessing</td><td style="vertical-align:top;">:</td><td><div><table></table></div></td></tr><tr><td style="font-weight:bold;vertical-align:top;">session_client</td><td style="vertical-align:top;">:</td><td><div>41.206.11.195</div></td></tr><tr><td style="font-weight:bold;vertical-align:top;">session_cookie_compression_level</td><td style="vertical-align:top;">:</td><td><div>None</div></td></tr><tr><td style="font-weight:bold;vertical-align:top;">session_cookie_expires</td><td style="vertical-align:top;">:</td><td><div>None</div></td></tr><tr><td style="font-weight:bold;vertical-align:top;">session_cookie_key</td><td style="vertical-align:top;">:</td><td><div>None</div></td></tr><tr><td style="font-weight:bold;vertical-align:top;">session_data_name</td><td style="vertical-align:top;">:</td><td><div>session_data_emisv001</div></td></tr><tr><td style="font-weight:bold;vertical-align:top;">session_file</td><td style="vertical-align:top;">:</td><td><div>&lt;open file &#x27;/home/www-data/web2py/applications/emisv001/sessions/17a/152/41.206.11.195-363135c0-e429-4cce-927f-d109edd5edcf&#x27;, mode &#x27;rb+&#x27; at 0x7fcb4df954b0&gt;</div></td></tr><tr><td style="font-weight:bold;vertical-align:top;">session_filename</td><td style="vertical-align:top;">:</td><td><div>/home/www-data/web2py/applications/emisv001/sessions/41.206.11.195-363135c0-e429-4cce-927f-d109edd5edcf</div></td></tr><tr><td style="font-weight:bold;vertical-align:top;">session_hash</td><td style="vertical-align:top;">:</td><td><div>15ea4bd7d3a53bb59c3272e9eeb63d3e</div></td></tr><tr><td style="font-weight:bold;vertical-align:top;">session_id</td><td style="vertical-align:top;">:</td><td><div>41.206.11.195-363135c0-e429-4cce-927f-d109edd5edcf</div></td></tr><tr><td style="font-weight:bold;vertical-align:top;">session_id_name</td><td style="vertical-align:top;">:</td><td><div>session_id_emisv001</div></td></tr><tr><td style="font-weight:bold;vertical-align:top;">session_locked</td><td style="vertical-align:top;">:</td><td><div>True</div></td></tr><tr><td style="font-weight:bold;vertical-align:top;">session_masterapp</td><td style="vertical-align:top;">:</td><td><div>emisv001</div></td></tr><tr><td style="font-weight:bold;vertical-align:top;">session_new</td><td style="vertical-align:top;">:</td><td><div>False</div></td></tr><tr><td style="font-weight:bold;vertical-align:top;">session_storage_type</td><td style="vertical-align:top;">:</td><td><div>file</div></td></tr><tr><td style="font-weight:bold;vertical-align:top;">status</td><td style="vertical-align:top;">:</td><td><div>200</div></td></tr><tr><td style="font-weight:bold;vertical-align:top;">subtitle</td><td style="vertical-align:top;">:</td><td><div>Education Management Information System</div></td></tr><tr><td style="font-weight:bold;vertical-align:top;">title</td><td style="vertical-align:top;">:</td><td><div>Airforce Institute of Technology (A.F.I.T)</div></td></tr><tr><td style="font-weight:bold;vertical-align:top;">view</td><td style="vertical-align:top;">:</td><td><div>emisreport/getdeptsession.html</div></td></tr></table></div>'
tRp187
sS'locals'
p188
(dp189
S'depart'
p190
S'None'
p191
sssS'traceback'
p192
S'Traceback (most recent call last):\n  File "/home/www-data/web2py/gluon/restricted.py", line 227, in restricted\n    exec ccode in environment\n  File "/home/www-data/web2py/applications/emisv001/controllers/emisreport.py", line 244, in <module>\n  File "/home/www-data/web2py/gluon/globals.py", line 393, in <lambda>\n    self._caller = lambda f: f()\n  File "/home/www-data/web2py/gluon/tools.py", line 3440, in f\n    return action(*a, **b)\n  File "/home/www-data/web2py/applications/emisv001/controllers/emisreport.py", line 96, in getdeptsession\n    inputform = SQLFORM.factory(Field(\'department\', \'reference department\', requires=IS_IN_DB(db(db.department.id==depart.id), db.department.name)),\nAttributeError: \'NoneType\' object has no attribute \'id\'\n'
p193
s.